target datalayout = "e-m:e-p270:32:32-p271:32:32-p272:64:64-i64:64-i128:128-f80:128-n8:16:32:64-S128"
target triple = "x86_64-pc-linux-gnu"

%union.ListCell = type { ptr }
%struct.ForEachState = type { ptr, i32 }
%struct.List = type { i32, i32, i32, ptr, [0 x %union.ListCell] }
%struct.HASHCTL = type { i64, i64, i64, i64, i64, i64, ptr, ptr, ptr, ptr, ptr, ptr }
%struct.deparse_columns = type { i32, ptr, i32, ptr, ptr, i8, ptr, i32, i32, ptr, ptr, ptr, ptr }

@CurrentMemoryContext = external global ptr, align 8
@.str.67 = private unnamed_addr constant [22 x i8] c"deparse_columns names\00", align 1

; Function Attrs: nounwind uwtable
define internal void @add_to_names_hash(ptr noundef %0, ptr noundef %1) #0 {
  %3 = alloca ptr, align 8
  %4 = alloca ptr, align 8
  store ptr %0, ptr %3, align 8
  store ptr %1, ptr %4, align 8
  %5 = load ptr, ptr %3, align 8
  %6 = getelementptr inbounds nuw %struct.deparse_columns, ptr %5, i32 0, i32 12
  %7 = load ptr, ptr %6, align 8
  %8 = icmp ne ptr %7, null
  br i1 %8, label %9, label %15

9:                                                ; preds = %2
  %10 = load ptr, ptr %3, align 8
  %11 = getelementptr inbounds nuw %struct.deparse_columns, ptr %10, i32 0, i32 12
  %12 = load ptr, ptr %11, align 8
  %13 = load ptr, ptr %4, align 8
  %14 = call ptr @hash_search(ptr noundef %12, ptr noundef %13, i32 noundef 1, ptr noundef null)
  br label %15

15:                                               ; preds = %9, %2
  ret void
}

; Function Attrs: nounwind uwtable
define internal void @build_colinfo_names_hash(ptr noundef %0) #0 {
  %2 = alloca ptr, align 8
  %3 = alloca %struct.HASHCTL, align 8
  %4 = alloca i32, align 4
  %5 = alloca ptr, align 8
  %6 = alloca i32, align 4
  %7 = alloca ptr, align 8
  %8 = alloca ptr, align 8
  %9 = alloca %struct.ForEachState, align 8
  %10 = alloca ptr, align 8
  store ptr %0, ptr %2, align 8
  call void @llvm.lifetime.start.p0(i64 96, ptr %3) #10
  call void @llvm.lifetime.start.p0(i64 4, ptr %4) #10
  call void @llvm.lifetime.start.p0(i64 8, ptr %5) #10
  %11 = load ptr, ptr %2, align 8
  %12 = getelementptr inbounds nuw %struct.deparse_columns, ptr %11, i32 0, i32 0
  %13 = load i32, ptr %12, align 8
  %14 = icmp slt i32 %13, 32
  br i1 %14, label %15, label %16

15:                                               ; preds = %1
  store i32 1, ptr %6, align 4
  br label %122

16:                                               ; preds = %1
  %17 = getelementptr inbounds nuw %struct.HASHCTL, ptr %3, i32 0, i32 4
  store i64 64, ptr %17, align 8
  %18 = getelementptr inbounds nuw %struct.HASHCTL, ptr %3, i32 0, i32 5
  store i64 64, ptr %18, align 8
  %19 = load ptr, ptr @CurrentMemoryContext, align 8
  %20 = getelementptr inbounds nuw %struct.HASHCTL, ptr %3, i32 0, i32 10
  store ptr %19, ptr %20, align 8
  %21 = load ptr, ptr %2, align 8
  %22 = getelementptr inbounds nuw %struct.deparse_columns, ptr %21, i32 0, i32 0
  %23 = load i32, ptr %22, align 8
  %24 = load ptr, ptr %2, align 8
  %25 = getelementptr inbounds nuw %struct.deparse_columns, ptr %24, i32 0, i32 2
  %26 = load i32, ptr %25, align 8
  %27 = add i32 %23, %26
  %28 = sext i32 %27 to i64
  %29 = call ptr @hash_create(ptr noundef @.str.67, i64 noundef %28, ptr noundef %3, i32 noundef 1048)
  %30 = load ptr, ptr %2, align 8
  %31 = getelementptr inbounds nuw %struct.deparse_columns, ptr %30, i32 0, i32 12
  store ptr %29, ptr %31, align 8
  store i32 0, ptr %4, align 4
  br label %32

32:                                               ; preds = %52, %16
  %33 = load i32, ptr %4, align 4
  %34 = load ptr, ptr %2, align 8
  %35 = getelementptr inbounds nuw %struct.deparse_columns, ptr %34, i32 0, i32 0
  %36 = load i32, ptr %35, align 8
  %37 = icmp slt i32 %33, %36
  br i1 %37, label %38, label %55

38:                                               ; preds = %32
  call void @llvm.lifetime.start.p0(i64 8, ptr %7) #10
  %39 = load ptr, ptr %2, align 8
  %40 = getelementptr inbounds nuw %struct.deparse_columns, ptr %39, i32 0, i32 1
  %41 = load ptr, ptr %40, align 8
  %42 = load i32, ptr %4, align 4
  %43 = sext i32 %42 to i64
  %44 = getelementptr inbounds ptr, ptr %41, i64 %43
  %45 = load ptr, ptr %44, align 8
  store ptr %45, ptr %7, align 8
  %46 = load ptr, ptr %7, align 8
  %47 = icmp ne ptr %46, null
  br i1 %47, label %48, label %51

48:                                               ; preds = %38
  %49 = load ptr, ptr %2, align 8
  %50 = load ptr, ptr %7, align 8
  call void @add_to_names_hash(ptr noundef %49, ptr noundef %50)
  br label %51

51:                                               ; preds = %48, %38
  call void @llvm.lifetime.end.p0(i64 8, ptr %7) #10
  br label %52

52:                                               ; preds = %51
  %53 = load i32, ptr %4, align 4
  %54 = add i32 %53, 1
  store i32 %54, ptr %4, align 4
  br label %32, !llvm.loop !76

55:                                               ; preds = %32
  store i32 0, ptr %4, align 4
  br label %56

56:                                               ; preds = %76, %55
  %57 = load i32, ptr %4, align 4
  %58 = load ptr, ptr %2, align 8
  %59 = getelementptr inbounds nuw %struct.deparse_columns, ptr %58, i32 0, i32 2
  %60 = load i32, ptr %59, align 8
  %61 = icmp slt i32 %57, %60
  br i1 %61, label %62, label %79

62:                                               ; preds = %56
  call void @llvm.lifetime.start.p0(i64 8, ptr %8) #10
  %63 = load ptr, ptr %2, align 8
  %64 = getelementptr inbounds nuw %struct.deparse_columns, ptr %63, i32 0, i32 3
  %65 = load ptr, ptr %64, align 8
  %66 = load i32, ptr %4, align 4
  %67 = sext i32 %66 to i64
  %68 = getelementptr inbounds ptr, ptr %65, i64 %67
  %69 = load ptr, ptr %68, align 8
  store ptr %69, ptr %8, align 8
  %70 = load ptr, ptr %8, align 8
  %71 = icmp ne ptr %70, null
  br i1 %71, label %72, label %75

72:                                               ; preds = %62
  %73 = load ptr, ptr %2, align 8
  %74 = load ptr, ptr %8, align 8
  call void @add_to_names_hash(ptr noundef %73, ptr noundef %74)
  br label %75

75:                                               ; preds = %72, %62
  call void @llvm.lifetime.end.p0(i64 8, ptr %8) #10
  br label %76

76:                                               ; preds = %75
  %77 = load i32, ptr %4, align 4
  %78 = add i32 %77, 1
  store i32 %78, ptr %4, align 4
  br label %56, !llvm.loop !77

79:                                               ; preds = %56
  call void @llvm.lifetime.start.p0(i64 16, ptr %9) #10
  %80 = getelementptr inbounds nuw %struct.ForEachState, ptr %9, i32 0, i32 0
  %81 = load ptr, ptr %2, align 8
  %82 = getelementptr inbounds nuw %struct.deparse_columns, ptr %81, i32 0, i32 6
  %83 = load ptr, ptr %82, align 8
  store ptr %83, ptr %80, align 8
  %84 = getelementptr inbounds nuw %struct.ForEachState, ptr %9, i32 0, i32 1
  store i32 0, ptr %84, align 8
  %85 = getelementptr i8, ptr %9, i64 12
  call void @llvm.memset.p0.i64(ptr align 4 %85, i8 0, i64 4, i1 false)
  br label %86

86:                                               ; preds = %117, %79
  %87 = getelementptr inbounds nuw %struct.ForEachState, ptr %9, i32 0, i32 0
  %88 = load ptr, ptr %87, align 8
  %89 = icmp ne ptr %88, null
  br i1 %89, label %90, label %107

90:                                               ; preds = %86
  %91 = getelementptr inbounds nuw %struct.ForEachState, ptr %9, i32 0, i32 1
  %92 = load i32, ptr %91, align 8
  %93 = getelementptr inbounds nuw %struct.ForEachState, ptr %9, i32 0, i32 0
  %94 = load ptr, ptr %93, align 8
  %95 = getelementptr inbounds nuw %struct.List, ptr %94, i32 0, i32 1
  %96 = load i32, ptr %95, align 4
  %97 = icmp slt i32 %92, %96
  br i1 %97, label %98, label %107

98:                                               ; preds = %90
  %99 = getelementptr inbounds nuw %struct.ForEachState, ptr %9, i32 0, i32 0
  %100 = load ptr, ptr %99, align 8
  %101 = getelementptr inbounds nuw %struct.List, ptr %100, i32 0, i32 3
  %102 = load ptr, ptr %101, align 8
  %103 = getelementptr inbounds nuw %struct.ForEachState, ptr %9, i32 0, i32 1
  %104 = load i32, ptr %103, align 8
  %105 = sext i32 %104 to i64
  %106 = getelementptr inbounds %union.ListCell, ptr %102, i64 %105
  store ptr %106, ptr %5, align 8
  br label %108

107:                                              ; preds = %90, %86
  store ptr null, ptr %5, align 8
  br label %108

108:                                              ; preds = %107, %98
  %109 = phi i32 [ 1, %98 ], [ 0, %107 ]
  %110 = icmp ne i32 %109, 0
  br i1 %110, label %112, label %111

111:                                              ; preds = %108
  store i32 8, ptr %6, align 4
  call void @llvm.lifetime.end.p0(i64 16, ptr %9) #10
  br label %121

112:                                              ; preds = %108
  call void @llvm.lifetime.start.p0(i64 8, ptr %10) #10
  %113 = load ptr, ptr %5, align 8
  %114 = load ptr, ptr %113, align 8
  store ptr %114, ptr %10, align 8
  %115 = load ptr, ptr %2, align 8
  %116 = load ptr, ptr %10, align 8
  call void @add_to_names_hash(ptr noundef %115, ptr noundef %116)
  call void @llvm.lifetime.end.p0(i64 8, ptr %10) #10
  br label %117

117:                                              ; preds = %112
  %118 = getelementptr inbounds nuw %struct.ForEachState, ptr %9, i32 0, i32 1
  %119 = load i32, ptr %118, align 8
  %120 = add i32 %119, 1
  store i32 %120, ptr %118, align 8
  br label %86, !llvm.loop !78

121:                                              ; preds = %111
  store i32 0, ptr %6, align 4
  br label %122

122:                                              ; preds = %121, %15
  call void @llvm.lifetime.end.p0(i64 8, ptr %5) #10
  call void @llvm.lifetime.end.p0(i64 4, ptr %4) #10
  call void @llvm.lifetime.end.p0(i64 96, ptr %3) #10
  %123 = load i32, ptr %6, align 4
  switch i32 %123, label %125 [
    i32 0, label %124
    i32 1, label %124
  ]

124:                                              ; preds = %122, %122
  ret void

125:                                              ; preds = %122
  unreachable
}