; Function Attrs: nounwind uwtable
define internal fastcc void @build_colinfo_names_hash(ptr noundef captures(none) %0) unnamed_addr #0 {
  %2 = alloca %struct.HASHCTL, align 8
  call void @llvm.lifetime.start.p0(i64 96, ptr nonnull %2) #11
  %3 = load i32, ptr %0, align 8
  %4 = icmp slt i32 %3, 32
  br i1 %4, label %.thread, label %5

5:                                                ; preds = %1
  %6 = getelementptr inbounds nuw i8, ptr %2, i64 32
  store i64 64, ptr %6, align 8
  %7 = getelementptr inbounds nuw i8, ptr %2, i64 40
  store i64 64, ptr %7, align 8
  %8 = load ptr, ptr @CurrentMemoryContext, align 8
  %9 = getelementptr inbounds nuw i8, ptr %2, i64 80
  store ptr %8, ptr %9, align 8
  %10 = getelementptr inbounds nuw i8, ptr %0, i64 16
  %11 = load i32, ptr %10, align 8
  %12 = add i32 %11, %3
  %13 = sext i32 %12 to i64
  %14 = call ptr @hash_create(ptr noundef nonnull @.str.67, i64 noundef %13, ptr noundef nonnull %2, i32 noundef 1048) #11
  %15 = getelementptr inbounds nuw i8, ptr %0, i64 88
  store ptr %14, ptr %15, align 8
  %16 = load i32, ptr %0, align 8
  %17 = icmp sgt i32 %16, 0
  br i1 %17, label %.lr.ph, label %.preheader

.lr.ph:                                           ; preds = %5
  %18 = getelementptr inbounds nuw i8, ptr %0, i64 8
  br label %22

.preheader:                                       ; preds = %add_to_names_hash.exit, %5
  %19 = load i32, ptr %10, align 8
  %20 = icmp sgt i32 %19, 0
  br i1 %20, label %.lr.ph44, label %._crit_edge

.lr.ph44:                                         ; preds = %.preheader
  %21 = getelementptr inbounds nuw i8, ptr %0, i64 24
  br label %33

22:                                               ; preds = %.lr.ph, %add_to_names_hash.exit
  %23 = phi i32 [ %16, %.lr.ph ], [ %30, %add_to_names_hash.exit ]
  %indvars.iv = phi i64 [ 0, %.lr.ph ], [ %indvars.iv.next, %add_to_names_hash.exit ]
  %24 = load ptr, ptr %18, align 8
  %25 = getelementptr inbounds nuw ptr, ptr %24, i64 %indvars.iv
  %26 = load ptr, ptr %25, align 8
  %.not33 = icmp eq ptr %26, null
  br i1 %.not33, label %add_to_names_hash.exit, label %27

27:                                               ; preds = %22
  %.val = load ptr, ptr %15, align 8
  %.not.i = icmp eq ptr %.val, null
  br i1 %.not.i, label %add_to_names_hash.exit, label %28

28:                                               ; preds = %27
  %29 = call ptr @hash_search(ptr noundef nonnull %.val, ptr noundef nonnull %26, i32 noundef 1, ptr noundef null) #11
  %.pre = load i32, ptr %0, align 8
  br label %add_to_names_hash.exit

add_to_names_hash.exit:                           ; preds = %28, %27, %22
  %30 = phi i32 [ %.pre, %28 ], [ %23, %27 ], [ %23, %22 ]
  %indvars.iv.next = add nuw nsw i64 %indvars.iv, 1
  %31 = sext i32 %30 to i64
  %32 = icmp slt i64 %indvars.iv.next, %31
  br i1 %32, label %22, label %.preheader, !llvm.loop !56

33:                                               ; preds = %.lr.ph44, %add_to_names_hash.exit37
  %34 = phi i32 [ %19, %.lr.ph44 ], [ %41, %add_to_names_hash.exit37 ]
  %indvars.iv56 = phi i64 [ 0, %.lr.ph44 ], [ %indvars.iv.next57, %add_to_names_hash.exit37 ]
  %35 = load ptr, ptr %21, align 8
  %36 = getelementptr inbounds nuw ptr, ptr %35, i64 %indvars.iv56
  %37 = load ptr, ptr %36, align 8
  %.not32 = icmp eq ptr %37, null
  br i1 %.not32, label %add_to_names_hash.exit37, label %38

38:                                               ; preds = %33
  %.val34 = load ptr, ptr %15, align 8
  %.not.i36 = icmp eq ptr %.val34, null
  br i1 %.not.i36, label %add_to_names_hash.exit37, label %39

39:                                               ; preds = %38
  %40 = call ptr @hash_search(ptr noundef nonnull %.val34, ptr noundef nonnull %37, i32 noundef 1, ptr noundef null) #11
  %.pre62 = load i32, ptr %10, align 8
  br label %add_to_names_hash.exit37

add_to_names_hash.exit37:                         ; preds = %39, %38, %33
  %41 = phi i32 [ %.pre62, %39 ], [ %34, %38 ], [ %34, %33 ]
  %indvars.iv.next57 = add nuw nsw i64 %indvars.iv56, 1
  %42 = sext i32 %41 to i64
  %43 = icmp slt i64 %indvars.iv.next57, %42
  br i1 %43, label %33, label %._crit_edge, !llvm.loop !57

._crit_edge:                                      ; preds = %add_to_names_hash.exit37, %.preheader
  %44 = getelementptr inbounds nuw i8, ptr %0, i64 48
  %45 = load ptr, ptr %44, align 8
  %46 = getelementptr inbounds nuw i8, ptr %45, i64 4
  %.not = icmp eq ptr %45, null
  br i1 %.not, label %.thread, label %.lr.ph47

.lr.ph47:                                         ; preds = %._crit_edge
  %47 = getelementptr inbounds nuw i8, ptr %45, i64 16
  %48 = load i32, ptr %46, align 4
  %49 = icmp sgt i32 %48, 0
  br i1 %49, label %.lr.ph50, label %.thread

.lr.ph50:                                         ; preds = %.lr.ph47
  %50 = load ptr, ptr %15, align 8
  %51 = icmp eq ptr %50, null
  br i1 %51, label %.thread, label %.lr.ph50.split

.lr.ph50.splitthread-pre-split:                   ; preds = %add_to_names_hash.exit39
  %.val35.pr = load ptr, ptr %15, align 8
  br label %.lr.ph50.split

.lr.ph50.split:                                   ; preds = %.lr.ph50, %.lr.ph50.splitthread-pre-split
  %.val35 = phi ptr [ %.val35.pr, %.lr.ph50.splitthread-pre-split ], [ %50, %.lr.ph50 ]
  %52 = phi i32 [ %58, %.lr.ph50.splitthread-pre-split ], [ %48, %.lr.ph50 ]
  %indvars.iv59 = phi i64 [ %indvars.iv.next60, %.lr.ph50.splitthread-pre-split ], [ 0, %.lr.ph50 ]
  %.not.i38 = icmp eq ptr %.val35, null
  br i1 %.not.i38, label %add_to_names_hash.exit39, label %53

53:                                               ; preds = %.lr.ph50.split
  %54 = load ptr, ptr %47, align 8
  %55 = getelementptr inbounds nuw %union.ListCell, ptr %54, i64 %indvars.iv59
  %56 = load ptr, ptr %55, align 8
  %57 = call ptr @hash_search(ptr noundef nonnull %.val35, ptr noundef %56, i32 noundef 1, ptr noundef null) #11
  %.pre63 = load i32, ptr %46, align 4
  br label %add_to_names_hash.exit39

add_to_names_hash.exit39:                         ; preds = %.lr.ph50.split, %53
  %58 = phi i32 [ %52, %.lr.ph50.split ], [ %.pre63, %53 ]
  %indvars.iv.next60 = add nuw nsw i64 %indvars.iv59, 1
  %59 = sext i32 %58 to i64
  %60 = icmp slt i64 %indvars.iv.next60, %59
  br i1 %60, label %.lr.ph50.splitthread-pre-split, label %.thread, !llvm.loop !58

.thread:                                          ; preds = %add_to_names_hash.exit39, %.lr.ph50, %._crit_edge, %.lr.ph47, %1
  call void @llvm.lifetime.end.p0(i64 96, ptr nonnull %2) #11
  ret void
}